target datalayout = "e-m:e-p270:32:32-p271:32:32-p272:64:64-i64:64-i128:128-f80:128-n8:16:32:64-S128"
target triple = "x86_64-pc-linux-gnu"

%struct.JNINativeInterface_ = type { ptr, ptr, ptr, ptr, ptr, ptr, ptr, ptr, ptr, ptr, ptr, ptr, ptr, ptr, ptr, ptr, ptr, ptr, ptr, ptr, ptr, ptr, ptr, ptr, ptr, ptr, ptr, ptr, ptr, ptr, ptr, ptr, ptr, ptr, ptr, ptr, ptr, ptr, ptr, ptr, ptr, ptr, ptr, ptr, ptr, ptr, ptr, ptr, ptr, ptr, ptr, ptr, ptr, ptr, ptr, ptr, ptr, ptr, ptr, ptr, ptr, ptr, ptr, ptr, ptr, ptr, ptr, ptr, ptr, ptr, ptr, ptr, ptr, ptr, ptr, ptr, ptr, ptr, ptr, ptr, ptr, ptr, ptr, ptr, ptr, ptr, ptr, ptr, ptr, ptr, ptr, ptr, ptr, ptr, ptr, ptr, ptr, ptr, ptr, ptr, ptr, ptr, ptr, ptr, ptr, ptr, ptr, ptr, ptr, ptr, ptr, ptr, ptr, ptr, ptr, ptr, ptr, ptr, ptr, ptr, ptr, ptr, ptr, ptr, ptr, ptr, ptr, ptr, ptr, ptr, ptr, ptr, ptr, ptr, ptr, ptr, ptr, ptr, ptr, ptr, ptr, ptr, ptr, ptr, ptr, ptr, ptr, ptr, ptr, ptr, ptr, ptr, ptr, ptr, ptr, ptr, ptr, ptr, ptr, ptr, ptr, ptr, ptr, ptr, ptr, ptr, ptr, ptr, ptr, ptr, ptr, ptr, ptr, ptr, ptr, ptr, ptr, ptr, ptr, ptr, ptr, ptr, ptr, ptr, ptr, ptr, ptr, ptr, ptr, ptr, ptr, ptr, ptr, ptr, ptr, ptr, ptr, ptr, ptr, ptr, ptr, ptr, ptr, ptr, ptr, ptr, ptr, ptr, ptr, ptr, ptr, ptr, ptr, ptr, ptr, ptr, ptr, ptr, ptr, ptr, ptr, ptr, ptr, ptr, ptr, ptr, ptr, ptr, ptr, ptr, ptr, ptr, ptr, ptr, ptr }

@.str.6 = private unnamed_addr constant [14 x i8] c"name too long\00", align 1
@.str.7 = private unnamed_addr constant [4 x i8] c"lib\00", align 1
@.str.8 = private unnamed_addr constant [4 x i8] c".so\00", align 1

; Function Attrs: nounwind uwtable
define internal void @cpchars(ptr noundef %0, ptr noundef %1, i32 noundef %2) #0 {
  %4 = alloca ptr, align 8
  %5 = alloca ptr, align 8
  %6 = alloca i32, align 4
  %7 = alloca i32, align 4
  store ptr %0, ptr %4, align 8
  store ptr %1, ptr %5, align 8
  store i32 %2, ptr %6, align 4
  store i32 0, ptr %7, align 4
  br label %8

8:                                                ; preds = %23, %3
  %9 = load i32, ptr %7, align 4
  %10 = load i32, ptr %6, align 4
  %11 = icmp slt i32 %9, %10
  br i1 %11, label %12, label %26

12:                                               ; preds = %8
  %13 = load ptr, ptr %5, align 8
  %14 = load i32, ptr %7, align 4
  %15 = sext i32 %14 to i64
  %16 = getelementptr inbounds i8, ptr %13, i64 %15
  %17 = load i8, ptr %16, align 1
  %18 = sext i8 %17 to i16
  %19 = load ptr, ptr %4, align 8
  %20 = load i32, ptr %7, align 4
  %21 = sext i32 %20 to i64
  %22 = getelementptr inbounds i16, ptr %19, i64 %21
  store i16 %18, ptr %22, align 2
  br label %23

23:                                               ; preds = %12
  %24 = load i32, ptr %7, align 4
  %25 = add nsw i32 %24, 1
  store i32 %25, ptr %7, align 4
  br label %8, !llvm.loop !6

26:                                               ; preds = %8
  ret void
}

; Function Attrs: nounwind uwtable
define ptr @Java_java_lang_System_mapLibraryName(ptr noundef %0, ptr noundef %1, ptr noundef %2) #0 {
  %4 = alloca ptr, align 8
  %5 = alloca ptr, align 8
  %6 = alloca ptr, align 8
  %7 = alloca ptr, align 8
  %8 = alloca i32, align 4
  %9 = alloca i32, align 4
  %10 = alloca i32, align 4
  %11 = alloca [256 x i16], align 16
  store ptr %0, ptr %5, align 8
  store ptr %1, ptr %6, align 8
  store ptr %2, ptr %7, align 8
  store i32 3, ptr %9, align 4
  store i32 3, ptr %10, align 4
  %12 = load ptr, ptr %7, align 8
  %13 = icmp eq ptr %12, null
  br i1 %13, label %14, label %16

14:                                               ; preds = %3
  %15 = load ptr, ptr %5, align 8
  call void @JNU_ThrowNullPointerException(ptr noundef %15, ptr noundef null)
  store ptr null, ptr %4, align 8
  br label %61

16:                                               ; preds = %3
  %17 = load ptr, ptr %5, align 8
  %18 = load ptr, ptr %17, align 8
  %19 = getelementptr inbounds %struct.JNINativeInterface_, ptr %18, i32 0, i32 164
  %20 = load ptr, ptr %19, align 8
  %21 = load ptr, ptr %5, align 8
  %22 = load ptr, ptr %7, align 8
  %23 = call i32 %20(ptr noundef %21, ptr noundef %22)
  store i32 %23, ptr %8, align 4
  %24 = load i32, ptr %8, align 4
  %25 = icmp sgt i32 %24, 240
  br i1 %25, label %26, label %28

26:                                               ; preds = %16
  %27 = load ptr, ptr %5, align 8
  call void @JNU_ThrowIllegalArgumentException(ptr noundef %27, ptr noundef @.str.6)
  store ptr null, ptr %4, align 8
  br label %61

28:                                               ; preds = %16
  %29 = getelementptr inbounds [256 x i16], ptr %11, i64 0, i64 0
  %30 = load i32, ptr %9, align 4
  call void @cpchars(ptr noundef %29, ptr noundef @.str.7, i32 noundef %30)
  %31 = load ptr, ptr %5, align 8
  %32 = load ptr, ptr %31, align 8
  %33 = getelementptr inbounds %struct.JNINativeInterface_, ptr %32, i32 0, i32 220
  %34 = load ptr, ptr %33, align 8
  %35 = load ptr, ptr %5, align 8
  %36 = load ptr, ptr %7, align 8
  %37 = load i32, ptr %8, align 4
  %38 = getelementptr inbounds [256 x i16], ptr %11, i64 0, i64 0
  %39 = load i32, ptr %9, align 4
  %40 = sext i32 %39 to i64
  %41 = getelementptr inbounds i16, ptr %38, i64 %40
  call void %34(ptr noundef %35, ptr noundef %36, i32 noundef 0, i32 noundef %37, ptr noundef %41)
  %42 = load i32, ptr %9, align 4
  %43 = load i32, ptr %8, align 4
  %44 = add nsw i32 %43, %42
  store i32 %44, ptr %8, align 4
  %45 = getelementptr inbounds [256 x i16], ptr %11, i64 0, i64 0
  %46 = load i32, ptr %8, align 4
  %47 = sext i32 %46 to i64
  %48 = getelementptr inbounds i16, ptr %45, i64 %47
  %49 = load i32, ptr %10, align 4
  call void @cpchars(ptr noundef %48, ptr noundef @.str.8, i32 noundef %49)
  %50 = load i32, ptr %10, align 4
  %51 = load i32, ptr %8, align 4
  %52 = add nsw i32 %51, %50
  store i32 %52, ptr %8, align 4
  %53 = load ptr, ptr %5, align 8
  %54 = load ptr, ptr %53, align 8
  %55 = getelementptr inbounds %struct.JNINativeInterface_, ptr %54, i32 0, i32 163
  %56 = load ptr, ptr %55, align 8
  %57 = load ptr, ptr %5, align 8
  %58 = getelementptr inbounds [256 x i16], ptr %11, i64 0, i64 0
  %59 = load i32, ptr %8, align 4
  %60 = call ptr %56(ptr noundef %57, ptr noundef %58, i32 noundef %59)
  store ptr %60, ptr %4, align 8
  br label %61

61:                                               ; preds = %28, %26, %14
  %62 = load ptr, ptr %4, align 8
  ret ptr %62
}