; Function Attrs: nounwind uwtable
define ptr @Java_java_lang_System_mapLibraryName(ptr noundef %0, ptr nocapture noundef readnone %1, ptr noundef %2) local_unnamed_addr #0 {
  %4 = alloca [256 x i16], align 16
  %5 = icmp eq ptr %2, null
  br i1 %5, label %6, label %7

6:                                                ; preds = %3
  tail call void @JNU_ThrowNullPointerException(ptr noundef %0, ptr noundef null) #2
  br label %35

7:                                                ; preds = %3
  %8 = load ptr, ptr %0, align 8
  %9 = getelementptr inbounds i8, ptr %8, i64 1312
  %10 = load ptr, ptr %9, align 8
  %11 = tail call i32 %10(ptr noundef nonnull %0, ptr noundef nonnull %2) #2
  %12 = icmp sgt i32 %11, 240
  br i1 %12, label %13, label %.preheader

13:                                               ; preds = %7
  tail call void @JNU_ThrowIllegalArgumentException(ptr noundef nonnull %0, ptr noundef nonnull @.str.6) #2
  br label %35

.preheader:                                       ; preds = %7, %.preheader
  %indvars.iv.i = phi i64 [ %indvars.iv.next.i, %.preheader ], [ 0, %7 ]
  %14 = getelementptr inbounds i8, ptr @.str.7, i64 %indvars.iv.i
  %15 = load i8, ptr %14, align 1
  %16 = sext i8 %15 to i16
  %17 = getelementptr inbounds i16, ptr %4, i64 %indvars.iv.i
  store i16 %16, ptr %17, align 2
  %indvars.iv.next.i = add nuw nsw i64 %indvars.iv.i, 1
  %exitcond.not.i = icmp eq i64 %indvars.iv.next.i, 3
  br i1 %exitcond.not.i, label %cpchars.exit, label %.preheader, !llvm.loop !6

cpchars.exit:                                     ; preds = %.preheader
  %18 = load ptr, ptr %0, align 8
  %19 = getelementptr inbounds i8, ptr %18, i64 1760
  %20 = load ptr, ptr %19, align 8
  %21 = getelementptr inbounds i8, ptr %4, i64 6
  call void %20(ptr noundef nonnull %0, ptr noundef nonnull %2, i32 noundef 0, i32 noundef %11, ptr noundef nonnull %21) #2
  %22 = sext i32 %11 to i64
  %23 = getelementptr i16, ptr %4, i64 %22
  %24 = getelementptr i8, ptr %23, i64 6
  br label %25

25:                                               ; preds = %25, %cpchars.exit
  %indvars.iv.i24 = phi i64 [ 0, %cpchars.exit ], [ %indvars.iv.next.i25, %25 ]
  %26 = getelementptr inbounds i8, ptr @.str.8, i64 %indvars.iv.i24
  %27 = load i8, ptr %26, align 1
  %28 = sext i8 %27 to i16
  %29 = getelementptr inbounds i16, ptr %24, i64 %indvars.iv.i24
  store i16 %28, ptr %29, align 2
  %indvars.iv.next.i25 = add nuw nsw i64 %indvars.iv.i24, 1
  %exitcond.not.i26 = icmp eq i64 %indvars.iv.next.i25, 3
  br i1 %exitcond.not.i26, label %cpchars.exit27, label %25, !llvm.loop !6

cpchars.exit27:                                   ; preds = %25
  %30 = add nsw i32 %11, 6
  %31 = load ptr, ptr %0, align 8
  %32 = getelementptr inbounds i8, ptr %31, i64 1304
  %33 = load ptr, ptr %32, align 8
  %34 = call ptr %33(ptr noundef nonnull %0, ptr noundef nonnull %4, i32 noundef %30) #2
  br label %35

35:                                               ; preds = %cpchars.exit27, %13, %6
  %.0 = phi ptr [ null, %6 ], [ null, %13 ], [ %34, %cpchars.exit27 ]
  ret ptr %.0
}